target datalayout = "e-m:e-p270:32:32-p271:32:32-p272:64:64-i64:64-i128:128-f80:128-n8:16:32:64-S128"
target triple = "x86_64-pc-linux-gnu"

@.str.47 = private unnamed_addr constant [6 x i8] c"temp-\00", align 1
@.str.48 = private unnamed_addr constant [5 x i8] c".rdb\00", align 1

; Function Attrs: nounwind uwtable
define dso_local void @rdbRemoveTempFile(i32 noundef %0, i32 noundef %1) #0 {
  %3 = alloca i32, align 4
  %4 = alloca i32, align 4
  %5 = alloca [256 x i8], align 16
  %6 = alloca [32 x i8], align 16
  %7 = alloca i32, align 4
  store i32 %0, ptr %3, align 4, !tbaa !5
  store i32 %1, ptr %4, align 4, !tbaa !5
  call void @llvm.lifetime.start.p0(i64 256, ptr %5) #15
  call void @llvm.lifetime.start.p0(i64 32, ptr %6) #15
  %8 = getelementptr inbounds [32 x i8], ptr %6, i64 0, i64 0
  %9 = load i32, ptr %3, align 4, !tbaa !5
  %10 = sext i32 %9 to i64
  %11 = call i32 @ll2string(ptr noundef %8, i64 noundef 32, i64 noundef %10)
  %12 = getelementptr inbounds [256 x i8], ptr %5, i64 0, i64 0
  %13 = call i64 @redis_strlcpy(ptr noundef %12, ptr noundef @.str.47, i64 noundef 256)
  %14 = getelementptr inbounds [256 x i8], ptr %5, i64 0, i64 0
  %15 = getelementptr inbounds [32 x i8], ptr %6, i64 0, i64 0
  %16 = call i64 @redis_strlcat(ptr noundef %14, ptr noundef %15, i64 noundef 256)
  %17 = getelementptr inbounds [256 x i8], ptr %5, i64 0, i64 0
  %18 = call i64 @redis_strlcat(ptr noundef %17, ptr noundef @.str.48, i64 noundef 256)
  %19 = load i32, ptr %4, align 4, !tbaa !5
  %20 = icmp ne i32 %19, 0
  br i1 %20, label %21, label %26

21:                                               ; preds = %2
  call void @llvm.lifetime.start.p0(i64 4, ptr %7) #15
  %22 = getelementptr inbounds [256 x i8], ptr %5, i64 0, i64 0
  %23 = call i32 (ptr, i32, ...) @open64(ptr noundef %22, i32 noundef 2048)
  store i32 %23, ptr %7, align 4, !tbaa !5
  %24 = getelementptr inbounds [256 x i8], ptr %5, i64 0, i64 0
  %25 = call i32 @unlink(ptr noundef %24) #15
  call void @llvm.lifetime.end.p0(i64 4, ptr %7) #15
  br label %29

26:                                               ; preds = %2
  %27 = getelementptr inbounds [256 x i8], ptr %5, i64 0, i64 0
  %28 = call i32 @bg_unlink(ptr noundef %27)
  br label %29

29:                                               ; preds = %26, %21
  call void @llvm.lifetime.end.p0(i64 32, ptr %6) #15
  call void @llvm.lifetime.end.p0(i64 256, ptr %5) #15
  ret void
}