; Function Attrs: nounwind uwtable
define dso_local void @rdbRemoveTempFile(i32 noundef %0, i32 noundef %1) local_unnamed_addr #0 {
  %3 = alloca [256 x i8], align 16
  %4 = alloca [32 x i8], align 16
  call void @llvm.lifetime.start.p0(i64 256, ptr nonnull %3) #23
  call void @llvm.lifetime.start.p0(i64 32, ptr nonnull %4) #23
  %5 = sext i32 %0 to i64
  %6 = call i32 @ll2string(ptr noundef nonnull %4, i64 noundef 32, i64 noundef %5) #23
  %7 = call i64 @redis_strlcpy(ptr noundef nonnull %3, ptr noundef nonnull @.str.47, i64 noundef 256) #23
  %8 = call i64 @redis_strlcat(ptr noundef nonnull %3, ptr noundef nonnull %4, i64 noundef 256) #23
  %9 = call i64 @redis_strlcat(ptr noundef nonnull %3, ptr noundef nonnull @.str.48, i64 noundef 256) #23
  %.not = icmp eq i32 %1, 0
  br i1 %.not, label %13, label %10

10:                                               ; preds = %2
  %11 = call i32 (ptr, i32, ...) @open64(ptr noundef nonnull %3, i32 noundef 2048) #23
  %12 = call i32 @unlink(ptr noundef nonnull %3) #23
  br label %15

13:                                               ; preds = %2
  %14 = call i32 @bg_unlink(ptr noundef nonnull %3) #23
  br label %15

15:                                               ; preds = %13, %10
  call void @llvm.lifetime.end.p0(i64 32, ptr nonnull %4) #23
  call void @llvm.lifetime.end.p0(i64 256, ptr nonnull %3) #23
  ret void
}